target datalayout = "e-m:e-p270:32:32-p271:32:32-p272:64:64-i64:64-i128:128-f80:128-n8:16:32:64-S128"
target triple = "x86_64-pc-linux-gnu"

%struct.slurmdb_cluster_rec = type { ptr, i16, i64, %struct.sockaddr_storage, ptr, i32, i16, ptr, i16, %struct.slurmdb_cluster_fed_t, i32, %union.pthread_mutex_t, ptr, ptr, ptr, i16, ptr, ptr }
%struct.sockaddr_storage = type { i16, [118 x i8], i64 }
%struct.slurmdb_cluster_fed_t = type { ptr, i32, ptr, ptr, ptr, i32, i8, i8 }
%union.pthread_mutex_t = type { %struct.__pthread_mutex_s }
%struct.__pthread_mutex_s = type { i32, i32, i32, i32, i32, i16, i16, %struct.__pthread_internal_list }
%struct.__pthread_internal_list = type { ptr, ptr }

@.str.8 = private unnamed_addr constant [29 x i8] c"%s: pthread_mutex_init(): %m\00", align 1
@__func__.slurmdb_init_cluster_rec = private unnamed_addr constant [25 x i8] c"slurmdb_init_cluster_rec\00", align 1

; Function Attrs: nounwind uwtable
define dso_local void @slurmdb_init_cluster_rec(ptr noundef %0, i1 noundef zeroext %1) #0 {
  %3 = alloca ptr, align 8
  %4 = alloca i8, align 1
  %5 = alloca i32, align 4
  store ptr %0, ptr %3, align 8
  %6 = zext i1 %1 to i8
  store i8 %6, ptr %4, align 1
  %7 = load ptr, ptr %3, align 8
  %8 = icmp ne ptr %7, null
  br i1 %8, label %10, label %9

9:                                                ; preds = %2
  br label %32

10:                                               ; preds = %2
  %11 = load i8, ptr %4, align 1, !range !12, !noundef !13
  %12 = trunc i8 %11 to i1
  br i1 %12, label %13, label %15

13:                                               ; preds = %10
  %14 = load ptr, ptr %3, align 8
  call void @_free_cluster_rec_members(ptr noundef %14)
  br label %15

15:                                               ; preds = %13, %10
  %16 = load ptr, ptr %3, align 8
  call void @llvm.memset.p0.i64(ptr align 8 %16, i8 0, i64 328, i1 false)
  %17 = load ptr, ptr %3, align 8
  %18 = getelementptr inbounds nuw %struct.slurmdb_cluster_rec, ptr %17, i32 0, i32 10
  store i32 -2, ptr %18, align 8
  %19 = load ptr, ptr %3, align 8
  %20 = getelementptr inbounds nuw %struct.slurmdb_cluster_rec, ptr %19, i32 0, i32 9
  %21 = getelementptr inbounds nuw %struct.slurmdb_cluster_fed_t, ptr %20, i32 0, i32 5
  store i32 -2, ptr %21, align 8
  br label %22

22:                                               ; preds = %15
  call void @llvm.lifetime.start.p0(i64 4, ptr %5) #10
  %23 = load ptr, ptr %3, align 8
  %24 = getelementptr inbounds nuw %struct.slurmdb_cluster_rec, ptr %23, i32 0, i32 11
  %25 = call i32 @pthread_mutex_init(ptr noundef %24, ptr noundef null) #10
  store i32 %25, ptr %5, align 4
  %26 = load i32, ptr %5, align 4
  %27 = icmp ne i32 %26, 0
  br i1 %27, label %28, label %31

28:                                               ; preds = %22
  %29 = load i32, ptr %5, align 4
  %30 = call ptr @__errno_location() #13
  store i32 %29, ptr %30, align 4
  call void (ptr, ...) @fatal_abort(ptr noundef @.str.8, ptr noundef @__func__.slurmdb_init_cluster_rec) #12
  unreachable

31:                                               ; preds = %22
  call void @llvm.lifetime.end.p0(i64 4, ptr %5) #10
  br label %32

32:                                               ; preds = %9, %31
  ret void
}