; Function Attrs: nounwind uwtable
define dso_local void @slurmdb_init_cluster_rec(ptr noundef %0, i1 noundef zeroext %1) local_unnamed_addr #0 {
  %.not = icmp eq ptr %0, null
  br i1 %.not, label %12, label %3

3:                                                ; preds = %2
  br i1 %1, label %4, label %5

4:                                                ; preds = %3
  tail call fastcc void @_free_cluster_rec_members(ptr noundef %0)
  br label %5

5:                                                ; preds = %4, %3
  tail call void @llvm.memset.p0.i64(ptr noundef nonnull align 8 dereferenceable(328) %0, i8 0, i64 328, i1 false)
  %6 = getelementptr inbounds nuw i8, ptr %0, i64 232
  store i32 -2, ptr %6, align 8
  %7 = getelementptr inbounds nuw i8, ptr %0, i64 224
  store i32 -2, ptr %7, align 8
  %8 = getelementptr inbounds nuw i8, ptr %0, i64 240
  %9 = tail call i32 @pthread_mutex_init(ptr noundef nonnull %8, ptr noundef null) #19
  %.not9 = icmp eq i32 %9, 0
  br i1 %.not9, label %12, label %10

10:                                               ; preds = %5
  %11 = tail call ptr @__errno_location() #22
  store i32 %9, ptr %11, align 4
  tail call void (ptr, ...) @fatal_abort(ptr noundef nonnull @.str.8, ptr noundef nonnull @__func__.slurmdb_init_cluster_rec) #21
  unreachable

12:                                               ; preds = %5, %2
  ret void
}